target datalayout = "e-m:e-p270:32:32-p271:32:32-p272:64:64-i64:64-i128:128-f80:128-n8:16:32:64-S128"
target triple = "x86_64-unknown-linux-gnu"

%"class.QuantLib::AlphaForm" = type { ptr }
%"class.std::vector" = type { %"struct.std::_Vector_base" }
%"struct.std::_Vector_base" = type { %"struct.std::_Vector_base<double, std::allocator<double>>::_Vector_impl" }
%"struct.std::_Vector_base<double, std::allocator<double>>::_Vector_impl" = type { %"struct.std::_Vector_base<double, std::allocator<double>>::_Vector_impl_data" }
%"struct.std::_Vector_base<double, std::allocator<double>>::_Vector_impl_data" = type { ptr, ptr, ptr }
%"class.QuantLib::AlphaFormLinearHyperbolic" = type { %"class.QuantLib::AlphaForm", %"class.std::vector", double }

@_ZTVN8QuantLib9AlphaFormE = linkonce_odr unnamed_addr constant { [6 x ptr] } { [6 x ptr] [ptr null, ptr @_ZTIN8QuantLib9AlphaFormE, ptr @_ZN8QuantLib9AlphaFormD2Ev, ptr @_ZN8QuantLib9AlphaFormD0Ev, ptr @__cxa_pure_virtual, ptr @__cxa_pure_virtual] }, comdat, align 8

; Function Attrs: mustprogress nounwind uwtable
define linkonce_odr void @_ZNSt15__new_allocatorIdEC2ERKS0_(ptr noundef nonnull align 1 dereferenceable(1) %this, ptr noundef nonnull align 1 dereferenceable(1) %0) unnamed_addr #0 comdat align 2 {
entry:
  %this.addr = alloca ptr, align 8
  %.addr = alloca ptr, align 8
  store ptr %this, ptr %this.addr, align 8, !tbaa !3
  store ptr %0, ptr %.addr, align 8, !tbaa !3
  ret void
}

; Function Attrs: mustprogress nounwind uwtable
define linkonce_odr void @_ZNSt12_Vector_baseIdSaIdEE17_Vector_impl_dataC2EOS2_(ptr noundef nonnull align 8 dereferenceable(24) %this, ptr noundef nonnull align 8 dereferenceable(24) %__x) unnamed_addr #0 comdat align 2 {
entry:
  %this.addr = alloca ptr, align 8
  %__x.addr = alloca ptr, align 8
  store ptr %this, ptr %this.addr, align 8, !tbaa !3
  store ptr %__x, ptr %__x.addr, align 8, !tbaa !3
  %this1 = load ptr, ptr %this.addr, align 8
  %_M_start = getelementptr inbounds nuw %"struct.std::_Vector_base<double, std::allocator<double>>::_Vector_impl_data", ptr %this1, i32 0, i32 0
  %0 = load ptr, ptr %__x.addr, align 8, !tbaa !3
  %_M_start2 = getelementptr inbounds nuw %"struct.std::_Vector_base<double, std::allocator<double>>::_Vector_impl_data", ptr %0, i32 0, i32 0
  %1 = load ptr, ptr %_M_start2, align 8, !tbaa !22
  store ptr %1, ptr %_M_start, align 8, !tbaa !22
  %_M_finish = getelementptr inbounds nuw %"struct.std::_Vector_base<double, std::allocator<double>>::_Vector_impl_data", ptr %this1, i32 0, i32 1
  %2 = load ptr, ptr %__x.addr, align 8, !tbaa !3
  %_M_finish3 = getelementptr inbounds nuw %"struct.std::_Vector_base<double, std::allocator<double>>::_Vector_impl_data", ptr %2, i32 0, i32 1
  %3 = load ptr, ptr %_M_finish3, align 8, !tbaa !25
  store ptr %3, ptr %_M_finish, align 8, !tbaa !25
  %_M_end_of_storage = getelementptr inbounds nuw %"struct.std::_Vector_base<double, std::allocator<double>>::_Vector_impl_data", ptr %this1, i32 0, i32 2
  %4 = load ptr, ptr %__x.addr, align 8, !tbaa !3
  %_M_end_of_storage4 = getelementptr inbounds nuw %"struct.std::_Vector_base<double, std::allocator<double>>::_Vector_impl_data", ptr %4, i32 0, i32 2
  %5 = load ptr, ptr %_M_end_of_storage4, align 8, !tbaa !26
  store ptr %5, ptr %_M_end_of_storage, align 8, !tbaa !26
  %6 = load ptr, ptr %__x.addr, align 8, !tbaa !3
  %_M_end_of_storage5 = getelementptr inbounds nuw %"struct.std::_Vector_base<double, std::allocator<double>>::_Vector_impl_data", ptr %6, i32 0, i32 2
  store ptr null, ptr %_M_end_of_storage5, align 8, !tbaa !26
  %7 = load ptr, ptr %__x.addr, align 8, !tbaa !3
  %_M_finish6 = getelementptr inbounds nuw %"struct.std::_Vector_base<double, std::allocator<double>>::_Vector_impl_data", ptr %7, i32 0, i32 1
  store ptr null, ptr %_M_finish6, align 8, !tbaa !25
  %8 = load ptr, ptr %__x.addr, align 8, !tbaa !3
  %_M_start7 = getelementptr inbounds nuw %"struct.std::_Vector_base<double, std::allocator<double>>::_Vector_impl_data", ptr %8, i32 0, i32 0
  store ptr null, ptr %_M_start7, align 8, !tbaa !22
  ret void
}

; Function Attrs: mustprogress nounwind uwtable
define linkonce_odr void @_ZNSaIdEC2ERKS_(ptr noundef nonnull align 1 dereferenceable(1) %this, ptr noundef nonnull align 1 dereferenceable(1) %__a) unnamed_addr #0 comdat align 2 {
entry:
  %this.addr = alloca ptr, align 8
  %__a.addr = alloca ptr, align 8
  store ptr %this, ptr %this.addr, align 8, !tbaa !3
  store ptr %__a, ptr %__a.addr, align 8, !tbaa !3
  %this1 = load ptr, ptr %this.addr, align 8
  %0 = load ptr, ptr %__a.addr, align 8, !tbaa !3
  call void @_ZNSt15__new_allocatorIdEC2ERKS0_(ptr noundef nonnull align 1 dereferenceable(1) %this1, ptr noundef nonnull align 1 dereferenceable(1) %0) #10
  ret void
}

; Function Attrs: mustprogress nounwind uwtable
define linkonce_odr void @_ZNSt12_Vector_baseIdSaIdEE12_Vector_implC2EOS2_(ptr noundef nonnull align 8 dereferenceable(24) %this, ptr noundef nonnull align 8 dereferenceable(24) %__x) unnamed_addr #0 comdat align 2 {
entry:
  %this.addr = alloca ptr, align 8
  %__x.addr = alloca ptr, align 8
  store ptr %this, ptr %this.addr, align 8, !tbaa !3
  store ptr %__x, ptr %__x.addr, align 8, !tbaa !3
  %this1 = load ptr, ptr %this.addr, align 8
  %0 = load ptr, ptr %__x.addr, align 8, !tbaa !3
  call void @_ZNSaIdEC2ERKS_(ptr noundef nonnull align 1 dereferenceable(1) %this1, ptr noundef nonnull align 1 dereferenceable(1) %0) #10
  %1 = load ptr, ptr %__x.addr, align 8, !tbaa !3
  call void @_ZNSt12_Vector_baseIdSaIdEE17_Vector_impl_dataC2EOS2_(ptr noundef nonnull align 8 dereferenceable(24) %this1, ptr noundef nonnull align 8 dereferenceable(24) %1) #10
  ret void
}

; Function Attrs: mustprogress nounwind uwtable
define linkonce_odr void @_ZNSt12_Vector_baseIdSaIdEEC2EOS1_(ptr noundef nonnull align 8 dereferenceable(24) %this, ptr noundef nonnull align 8 dereferenceable(24) %0) unnamed_addr #0 comdat align 2 {
entry:
  %this.addr = alloca ptr, align 8
  %.addr = alloca ptr, align 8
  store ptr %this, ptr %this.addr, align 8, !tbaa !3
  store ptr %0, ptr %.addr, align 8, !tbaa !3
  %this1 = load ptr, ptr %this.addr, align 8
  %_M_impl = getelementptr inbounds nuw %"struct.std::_Vector_base", ptr %this1, i32 0, i32 0
  %1 = load ptr, ptr %.addr, align 8, !tbaa !3
  %_M_impl2 = getelementptr inbounds nuw %"struct.std::_Vector_base", ptr %1, i32 0, i32 0
  call void @_ZNSt12_Vector_baseIdSaIdEE12_Vector_implC2EOS2_(ptr noundef nonnull align 8 dereferenceable(24) %_M_impl, ptr noundef nonnull align 8 dereferenceable(24) %_M_impl2) #10
  ret void
}

; Function Attrs: mustprogress nounwind uwtable
define linkonce_odr void @_ZNSt6vectorIdSaIdEEC2EOS1_(ptr noundef nonnull align 8 dereferenceable(24) %this, ptr noundef nonnull align 8 dereferenceable(24) %0) unnamed_addr #0 comdat align 2 {
entry:
  %this.addr = alloca ptr, align 8
  %.addr = alloca ptr, align 8
  store ptr %this, ptr %this.addr, align 8, !tbaa !3
  store ptr %0, ptr %.addr, align 8, !tbaa !3
  %this1 = load ptr, ptr %this.addr, align 8
  %1 = load ptr, ptr %.addr, align 8, !tbaa !3
  call void @_ZNSt12_Vector_baseIdSaIdEEC2EOS1_(ptr noundef nonnull align 8 dereferenceable(24) %this1, ptr noundef nonnull align 8 dereferenceable(24) %1) #10
  ret void
}

; Function Attrs: inlinehint mustprogress nounwind uwtable
define linkonce_odr void @_ZN8QuantLib9AlphaFormC2Ev(ptr noundef nonnull align 8 dereferenceable(8) %this) unnamed_addr #1 comdat align 2 {
entry:
  %this.addr = alloca ptr, align 8
  store ptr %this, ptr %this.addr, align 8, !tbaa !3
  %this1 = load ptr, ptr %this.addr, align 8
  store ptr getelementptr inbounds inrange(-16, 32) ({ [6 x ptr] }, ptr @_ZTVN8QuantLib9AlphaFormE, i32 0, i32 0, i32 2), ptr %this1, align 8, !tbaa !9
  ret void
}

; Function Attrs: mustprogress nounwind uwtable
define void @_ZN8QuantLib25AlphaFormLinearHyperbolicC2ESt6vectorIdSaIdEEd(ptr noundef nonnull align 8 dereferenceable(40) %this, ptr noundef %times, double noundef %alpha) unnamed_addr #0 align 2 {
entry:
  %this.addr = alloca ptr, align 8
  %times.indirect_addr = alloca ptr, align 8
  %alpha.addr = alloca double, align 8
  store ptr %this, ptr %this.addr, align 8, !tbaa !3
  store ptr %times, ptr %times.indirect_addr, align 8, !tbaa !3
  store double %alpha, ptr %alpha.addr, align 8, !tbaa !7
  %this1 = load ptr, ptr %this.addr, align 8
  call void @_ZN8QuantLib9AlphaFormC2Ev(ptr noundef nonnull align 8 dereferenceable(8) %this1) #10
  store ptr getelementptr inbounds inrange(-16, 32) ({ [6 x ptr] }, ptr @_ZTVN8QuantLib25AlphaFormLinearHyperbolicE, i32 0, i32 0, i32 2), ptr %this1, align 8, !tbaa !9
  %times_ = getelementptr inbounds nuw %"class.QuantLib::AlphaFormLinearHyperbolic", ptr %this1, i32 0, i32 1
  call void @_ZNSt6vectorIdSaIdEEC2EOS1_(ptr noundef nonnull align 8 dereferenceable(24) %times_, ptr noundef nonnull align 8 dereferenceable(24) %times) #10
  %alpha_ = getelementptr inbounds nuw %"class.QuantLib::AlphaFormLinearHyperbolic", ptr %this1, i32 0, i32 2
  %0 = load double, ptr %alpha.addr, align 8, !tbaa !7
  store double %0, ptr %alpha_, align 8, !tbaa !23
  ret void
}