; Function Attrs: mustprogress nofree norecurse nosync nounwind willreturn memory(argmem: readwrite) uwtable
define void @_ZN8QuantLib25AlphaFormLinearHyperbolicC2ESt6vectorIdSaIdEEd(ptr nocapture noundef nonnull writeonly align 8 dereferenceable(40) %this, ptr nocapture noundef %times, double noundef %alpha) unnamed_addr #0 align 2 {
entry:
  store ptr getelementptr inbounds inrange(-16, 32) (i8, ptr @_ZTVN8QuantLib25AlphaFormLinearHyperbolicE, i64 16), ptr %this, align 8, !tbaa !3
  %times_ = getelementptr inbounds nuw i8, ptr %this, i64 8
  %0 = load ptr, ptr %times, align 8, !tbaa !6
  store ptr %0, ptr %times_, align 8, !tbaa !6
  %_M_finish.i.i.i.i = getelementptr inbounds nuw i8, ptr %this, i64 16
  %_M_finish3.i.i.i.i = getelementptr inbounds nuw i8, ptr %times, i64 8
  %1 = load ptr, ptr %_M_finish3.i.i.i.i, align 8, !tbaa !10
  store ptr %1, ptr %_M_finish.i.i.i.i, align 8, !tbaa !10
  %_M_end_of_storage.i.i.i.i = getelementptr inbounds nuw i8, ptr %this, i64 24
  %_M_end_of_storage4.i.i.i.i = getelementptr inbounds nuw i8, ptr %times, i64 16
  %2 = load ptr, ptr %_M_end_of_storage4.i.i.i.i, align 8, !tbaa !11
  store ptr %2, ptr %_M_end_of_storage.i.i.i.i, align 8, !tbaa !11
  tail call void @llvm.memset.p0.i64(ptr noundef nonnull align 8 dereferenceable(24) %times, i8 0, i64 24, i1 false)
  %alpha_ = getelementptr inbounds nuw i8, ptr %this, i64 32
  store double %alpha, ptr %alpha_, align 8, !tbaa !20
  ret void
}